target datalayout = "e-m:e-p270:32:32-p271:32:32-p272:64:64-i64:64-i128:128-f80:128-n8:16:32:64-S128"
target triple = "x86_64-pc-linux-gnu"

%struct._generic_SUNNonlinearSolver = type { ptr, ptr, ptr }
%struct._generic_SUNNonlinearSolver_Ops = type { ptr, ptr, ptr, ptr, ptr, ptr, ptr, ptr, ptr, ptr, ptr, ptr, ptr }
%struct._SUNNonlinearSolverContent_FixedPoint = type { ptr, ptr, i32, ptr, i32, double, ptr, ptr, ptr, ptr, ptr, ptr, ptr, ptr, ptr, ptr, ptr, ptr, i32, i32, i64, i64, ptr }

; Function Attrs: nounwind uwtable
define internal i32 @AllocateContent(ptr noundef %0, ptr noundef %1) #0 {
  %3 = alloca ptr, align 8
  %4 = alloca ptr, align 8
  %5 = alloca ptr, align 8
  %6 = alloca i32, align 4
  store ptr %0, ptr %3, align 8, !tbaa !12
  store ptr %1, ptr %4, align 8, !tbaa !3
  call void @llvm.lifetime.start.p0(i64 8, ptr %5) #7
  %7 = load ptr, ptr %3, align 8, !tbaa !12
  %8 = getelementptr inbounds nuw %struct._generic_SUNNonlinearSolver, ptr %7, i32 0, i32 2
  %9 = load ptr, ptr %8, align 8, !tbaa !47
  store ptr %9, ptr %5, align 8, !tbaa !10
  call void @llvm.lifetime.start.p0(i64 4, ptr %6) #7
  %10 = load ptr, ptr %3, align 8, !tbaa !12
  %11 = getelementptr inbounds nuw %struct._generic_SUNNonlinearSolver, ptr %10, i32 0, i32 0
  %12 = load ptr, ptr %11, align 8, !tbaa !30
  %13 = getelementptr inbounds nuw %struct._SUNNonlinearSolverContent_FixedPoint, ptr %12, i32 0, i32 2
  %14 = load i32, ptr %13, align 8, !tbaa !39
  store i32 %14, ptr %6, align 4, !tbaa !8
  %15 = load ptr, ptr %4, align 8, !tbaa !3
  %16 = call ptr @N_VClone(ptr noundef %15)
  %17 = load ptr, ptr %3, align 8, !tbaa !12
  %18 = getelementptr inbounds nuw %struct._generic_SUNNonlinearSolver, ptr %17, i32 0, i32 0
  %19 = load ptr, ptr %18, align 8, !tbaa !30
  %20 = getelementptr inbounds nuw %struct._SUNNonlinearSolverContent_FixedPoint, ptr %19, i32 0, i32 13
  store ptr %16, ptr %20, align 8, !tbaa !50
  %21 = load ptr, ptr %4, align 8, !tbaa !3
  %22 = call ptr @N_VClone(ptr noundef %21)
  %23 = load ptr, ptr %3, align 8, !tbaa !12
  %24 = getelementptr inbounds nuw %struct._generic_SUNNonlinearSolver, ptr %23, i32 0, i32 0
  %25 = load ptr, ptr %24, align 8, !tbaa !30
  %26 = getelementptr inbounds nuw %struct._SUNNonlinearSolverContent_FixedPoint, ptr %25, i32 0, i32 14
  store ptr %22, ptr %26, align 8, !tbaa !51
  %27 = load ptr, ptr %4, align 8, !tbaa !3
  %28 = call ptr @N_VClone(ptr noundef %27)
  %29 = load ptr, ptr %3, align 8, !tbaa !12
  %30 = getelementptr inbounds nuw %struct._generic_SUNNonlinearSolver, ptr %29, i32 0, i32 0
  %31 = load ptr, ptr %30, align 8, !tbaa !30
  %32 = getelementptr inbounds nuw %struct._SUNNonlinearSolverContent_FixedPoint, ptr %31, i32 0, i32 17
  store ptr %28, ptr %32, align 8, !tbaa !52
  %33 = load i32, ptr %6, align 4, !tbaa !8
  %34 = icmp sgt i32 %33, 0
  br i1 %34, label %35, label %115

35:                                               ; preds = %2
  %36 = load ptr, ptr %4, align 8, !tbaa !3
  %37 = call ptr @N_VClone(ptr noundef %36)
  %38 = load ptr, ptr %3, align 8, !tbaa !12
  %39 = getelementptr inbounds nuw %struct._generic_SUNNonlinearSolver, ptr %38, i32 0, i32 0
  %40 = load ptr, ptr %39, align 8, !tbaa !30
  %41 = getelementptr inbounds nuw %struct._SUNNonlinearSolverContent_FixedPoint, ptr %40, i32 0, i32 15
  store ptr %37, ptr %41, align 8, !tbaa !57
  %42 = load ptr, ptr %4, align 8, !tbaa !3
  %43 = call ptr @N_VClone(ptr noundef %42)
  %44 = load ptr, ptr %3, align 8, !tbaa !12
  %45 = getelementptr inbounds nuw %struct._generic_SUNNonlinearSolver, ptr %44, i32 0, i32 0
  %46 = load ptr, ptr %45, align 8, !tbaa !30
  %47 = getelementptr inbounds nuw %struct._SUNNonlinearSolverContent_FixedPoint, ptr %46, i32 0, i32 16
  store ptr %43, ptr %47, align 8, !tbaa !58
  %48 = load i32, ptr %6, align 4, !tbaa !8
  %49 = sext i32 %48 to i64
  %50 = mul i64 %49, 4
  %51 = call noalias ptr @malloc(i64 noundef %50) #8
  %52 = load ptr, ptr %3, align 8, !tbaa !12
  %53 = getelementptr inbounds nuw %struct._generic_SUNNonlinearSolver, ptr %52, i32 0, i32 0
  %54 = load ptr, ptr %53, align 8, !tbaa !30
  %55 = getelementptr inbounds nuw %struct._SUNNonlinearSolverContent_FixedPoint, ptr %54, i32 0, i32 3
  store ptr %51, ptr %55, align 8, !tbaa !59
  %56 = load i32, ptr %6, align 4, !tbaa !8
  %57 = load i32, ptr %6, align 4, !tbaa !8
  %58 = mul nsw i32 %56, %57
  %59 = sext i32 %58 to i64
  %60 = mul i64 %59, 8
  %61 = call noalias ptr @malloc(i64 noundef %60) #8
  %62 = load ptr, ptr %3, align 8, !tbaa !12
  %63 = getelementptr inbounds nuw %struct._generic_SUNNonlinearSolver, ptr %62, i32 0, i32 0
  %64 = load ptr, ptr %63, align 8, !tbaa !30
  %65 = getelementptr inbounds nuw %struct._SUNNonlinearSolverContent_FixedPoint, ptr %64, i32 0, i32 6
  store ptr %61, ptr %65, align 8, !tbaa !60
  %66 = load i32, ptr %6, align 4, !tbaa !8
  %67 = sext i32 %66 to i64
  %68 = mul i64 %67, 8
  %69 = call noalias ptr @malloc(i64 noundef %68) #8
  %70 = load ptr, ptr %3, align 8, !tbaa !12
  %71 = getelementptr inbounds nuw %struct._generic_SUNNonlinearSolver, ptr %70, i32 0, i32 0
  %72 = load ptr, ptr %71, align 8, !tbaa !30
  %73 = getelementptr inbounds nuw %struct._SUNNonlinearSolverContent_FixedPoint, ptr %72, i32 0, i32 7
  store ptr %69, ptr %73, align 8, !tbaa !61
  %74 = load i32, ptr %6, align 4, !tbaa !8
  %75 = add nsw i32 %74, 1
  %76 = mul nsw i32 2, %75
  %77 = sext i32 %76 to i64
  %78 = mul i64 %77, 8
  %79 = call noalias ptr @malloc(i64 noundef %78) #8
  %80 = load ptr, ptr %3, align 8, !tbaa !12
  %81 = getelementptr inbounds nuw %struct._generic_SUNNonlinearSolver, ptr %80, i32 0, i32 0
  %82 = load ptr, ptr %81, align 8, !tbaa !30
  %83 = getelementptr inbounds nuw %struct._SUNNonlinearSolverContent_FixedPoint, ptr %82, i32 0, i32 8
  store ptr %79, ptr %83, align 8, !tbaa !62
  %84 = load i32, ptr %6, align 4, !tbaa !8
  %85 = load ptr, ptr %4, align 8, !tbaa !3
  %86 = call ptr @N_VCloneVectorArray(i32 noundef %84, ptr noundef %85)
  %87 = load ptr, ptr %3, align 8, !tbaa !12
  %88 = getelementptr inbounds nuw %struct._generic_SUNNonlinearSolver, ptr %87, i32 0, i32 0
  %89 = load ptr, ptr %88, align 8, !tbaa !30
  %90 = getelementptr inbounds nuw %struct._SUNNonlinearSolverContent_FixedPoint, ptr %89, i32 0, i32 9
  store ptr %86, ptr %90, align 8, !tbaa !63
  %91 = load i32, ptr %6, align 4, !tbaa !8
  %92 = load ptr, ptr %4, align 8, !tbaa !3
  %93 = call ptr @N_VCloneVectorArray(i32 noundef %91, ptr noundef %92)
  %94 = load ptr, ptr %3, align 8, !tbaa !12
  %95 = getelementptr inbounds nuw %struct._generic_SUNNonlinearSolver, ptr %94, i32 0, i32 0
  %96 = load ptr, ptr %95, align 8, !tbaa !30
  %97 = getelementptr inbounds nuw %struct._SUNNonlinearSolverContent_FixedPoint, ptr %96, i32 0, i32 10
  store ptr %93, ptr %97, align 8, !tbaa !64
  %98 = load i32, ptr %6, align 4, !tbaa !8
  %99 = load ptr, ptr %4, align 8, !tbaa !3
  %100 = call ptr @N_VCloneVectorArray(i32 noundef %98, ptr noundef %99)
  %101 = load ptr, ptr %3, align 8, !tbaa !12
  %102 = getelementptr inbounds nuw %struct._generic_SUNNonlinearSolver, ptr %101, i32 0, i32 0
  %103 = load ptr, ptr %102, align 8, !tbaa !30
  %104 = getelementptr inbounds nuw %struct._SUNNonlinearSolverContent_FixedPoint, ptr %103, i32 0, i32 11
  store ptr %100, ptr %104, align 8, !tbaa !65
  %105 = load i32, ptr %6, align 4, !tbaa !8
  %106 = add nsw i32 %105, 1
  %107 = mul nsw i32 2, %106
  %108 = sext i32 %107 to i64
  %109 = mul i64 %108, 8
  %110 = call noalias ptr @malloc(i64 noundef %109) #8
  %111 = load ptr, ptr %3, align 8, !tbaa !12
  %112 = getelementptr inbounds nuw %struct._generic_SUNNonlinearSolver, ptr %111, i32 0, i32 0
  %113 = load ptr, ptr %112, align 8, !tbaa !30
  %114 = getelementptr inbounds nuw %struct._SUNNonlinearSolverContent_FixedPoint, ptr %113, i32 0, i32 12
  store ptr %110, ptr %114, align 8, !tbaa !66
  br label %115

115:                                              ; preds = %35, %2
  call void @llvm.lifetime.end.p0(i64 4, ptr %6) #7
  call void @llvm.lifetime.end.p0(i64 8, ptr %5) #7
  ret i32 0
}

; Function Attrs: nounwind uwtable
define ptr @SUNNonlinSol_FixedPoint(ptr noundef %0, i32 noundef %1, ptr noundef %2) #0 {
  %4 = alloca ptr, align 8
  %5 = alloca i32, align 4
  %6 = alloca ptr, align 8
  %7 = alloca ptr, align 8
  %8 = alloca ptr, align 8
  %9 = alloca ptr, align 8
  store ptr %0, ptr %4, align 8, !tbaa !3
  store i32 %1, ptr %5, align 4, !tbaa !8
  store ptr %2, ptr %6, align 8, !tbaa !10
  call void @llvm.lifetime.start.p0(i64 8, ptr %7) #7
  %10 = load ptr, ptr %6, align 8, !tbaa !10
  store ptr %10, ptr %7, align 8, !tbaa !10
  call void @llvm.lifetime.start.p0(i64 8, ptr %8) #7
  store ptr null, ptr %8, align 8, !tbaa !12
  call void @llvm.lifetime.start.p0(i64 8, ptr %9) #7
  store ptr null, ptr %9, align 8, !tbaa !14
  %11 = load ptr, ptr %6, align 8, !tbaa !10
  %12 = call ptr @SUNNonlinSolNewEmpty(ptr noundef %11)
  store ptr %12, ptr %8, align 8, !tbaa !12
  %13 = load ptr, ptr %8, align 8, !tbaa !12
  %14 = getelementptr inbounds nuw %struct._generic_SUNNonlinearSolver, ptr %13, i32 0, i32 1
  %15 = load ptr, ptr %14, align 8, !tbaa !16
  %16 = getelementptr inbounds nuw %struct._generic_SUNNonlinearSolver_Ops, ptr %15, i32 0, i32 0
  store ptr @SUNNonlinSolGetType_FixedPoint, ptr %16, align 8, !tbaa !19
  %17 = load ptr, ptr %8, align 8, !tbaa !12
  %18 = getelementptr inbounds nuw %struct._generic_SUNNonlinearSolver, ptr %17, i32 0, i32 1
  %19 = load ptr, ptr %18, align 8, !tbaa !16
  %20 = getelementptr inbounds nuw %struct._generic_SUNNonlinearSolver_Ops, ptr %19, i32 0, i32 1
  store ptr @SUNNonlinSolInitialize_FixedPoint, ptr %20, align 8, !tbaa !21
  %21 = load ptr, ptr %8, align 8, !tbaa !12
  %22 = getelementptr inbounds nuw %struct._generic_SUNNonlinearSolver, ptr %21, i32 0, i32 1
  %23 = load ptr, ptr %22, align 8, !tbaa !16
  %24 = getelementptr inbounds nuw %struct._generic_SUNNonlinearSolver_Ops, ptr %23, i32 0, i32 3
  store ptr @SUNNonlinSolSolve_FixedPoint, ptr %24, align 8, !tbaa !22
  %25 = load ptr, ptr %8, align 8, !tbaa !12
  %26 = getelementptr inbounds nuw %struct._generic_SUNNonlinearSolver, ptr %25, i32 0, i32 1
  %27 = load ptr, ptr %26, align 8, !tbaa !16
  %28 = getelementptr inbounds nuw %struct._generic_SUNNonlinearSolver_Ops, ptr %27, i32 0, i32 4
  store ptr @SUNNonlinSolFree_FixedPoint, ptr %28, align 8, !tbaa !23
  %29 = load ptr, ptr %8, align 8, !tbaa !12
  %30 = getelementptr inbounds nuw %struct._generic_SUNNonlinearSolver, ptr %29, i32 0, i32 1
  %31 = load ptr, ptr %30, align 8, !tbaa !16
  %32 = getelementptr inbounds nuw %struct._generic_SUNNonlinearSolver_Ops, ptr %31, i32 0, i32 5
  store ptr @SUNNonlinSolSetSysFn_FixedPoint, ptr %32, align 8, !tbaa !24
  %33 = load ptr, ptr %8, align 8, !tbaa !12
  %34 = getelementptr inbounds nuw %struct._generic_SUNNonlinearSolver, ptr %33, i32 0, i32 1
  %35 = load ptr, ptr %34, align 8, !tbaa !16
  %36 = getelementptr inbounds nuw %struct._generic_SUNNonlinearSolver_Ops, ptr %35, i32 0, i32 8
  store ptr @SUNNonlinSolSetConvTestFn_FixedPoint, ptr %36, align 8, !tbaa !25
  %37 = load ptr, ptr %8, align 8, !tbaa !12
  %38 = getelementptr inbounds nuw %struct._generic_SUNNonlinearSolver, ptr %37, i32 0, i32 1
  %39 = load ptr, ptr %38, align 8, !tbaa !16
  %40 = getelementptr inbounds nuw %struct._generic_SUNNonlinearSolver_Ops, ptr %39, i32 0, i32 9
  store ptr @SUNNonlinSolSetMaxIters_FixedPoint, ptr %40, align 8, !tbaa !26
  %41 = load ptr, ptr %8, align 8, !tbaa !12
  %42 = getelementptr inbounds nuw %struct._generic_SUNNonlinearSolver, ptr %41, i32 0, i32 1
  %43 = load ptr, ptr %42, align 8, !tbaa !16
  %44 = getelementptr inbounds nuw %struct._generic_SUNNonlinearSolver_Ops, ptr %43, i32 0, i32 10
  store ptr @SUNNonlinSolGetNumIters_FixedPoint, ptr %44, align 8, !tbaa !27
  %45 = load ptr, ptr %8, align 8, !tbaa !12
  %46 = getelementptr inbounds nuw %struct._generic_SUNNonlinearSolver, ptr %45, i32 0, i32 1
  %47 = load ptr, ptr %46, align 8, !tbaa !16
  %48 = getelementptr inbounds nuw %struct._generic_SUNNonlinearSolver_Ops, ptr %47, i32 0, i32 11
  store ptr @SUNNonlinSolGetCurIter_FixedPoint, ptr %48, align 8, !tbaa !28
  %49 = load ptr, ptr %8, align 8, !tbaa !12
  %50 = getelementptr inbounds nuw %struct._generic_SUNNonlinearSolver, ptr %49, i32 0, i32 1
  %51 = load ptr, ptr %50, align 8, !tbaa !16
  %52 = getelementptr inbounds nuw %struct._generic_SUNNonlinearSolver_Ops, ptr %51, i32 0, i32 12
  store ptr @SUNNonlinSolGetNumConvFails_FixedPoint, ptr %52, align 8, !tbaa !29
  store ptr null, ptr %9, align 8, !tbaa !14
  %53 = call noalias ptr @malloc(i64 noundef 176) #8
  store ptr %53, ptr %9, align 8, !tbaa !14
  %54 = load ptr, ptr %9, align 8, !tbaa !14
  call void @llvm.memset.p0.i64(ptr align 8 %54, i8 0, i64 176, i1 false)
  %55 = load ptr, ptr %9, align 8, !tbaa !14
  %56 = load ptr, ptr %8, align 8, !tbaa !12
  %57 = getelementptr inbounds nuw %struct._generic_SUNNonlinearSolver, ptr %56, i32 0, i32 0
  store ptr %55, ptr %57, align 8, !tbaa !30
  %58 = load ptr, ptr %9, align 8, !tbaa !14
  %59 = getelementptr inbounds nuw %struct._SUNNonlinearSolverContent_FixedPoint, ptr %58, i32 0, i32 0
  store ptr null, ptr %59, align 8, !tbaa !31
  %60 = load ptr, ptr %9, align 8, !tbaa !14
  %61 = getelementptr inbounds nuw %struct._SUNNonlinearSolverContent_FixedPoint, ptr %60, i32 0, i32 1
  store ptr null, ptr %61, align 8, !tbaa !38
  %62 = load i32, ptr %5, align 4, !tbaa !8
  %63 = load ptr, ptr %9, align 8, !tbaa !14
  %64 = getelementptr inbounds nuw %struct._SUNNonlinearSolverContent_FixedPoint, ptr %63, i32 0, i32 2
  store i32 %62, ptr %64, align 8, !tbaa !39
  %65 = load ptr, ptr %9, align 8, !tbaa !14
  %66 = getelementptr inbounds nuw %struct._SUNNonlinearSolverContent_FixedPoint, ptr %65, i32 0, i32 4
  store i32 0, ptr %66, align 8, !tbaa !40
  %67 = load ptr, ptr %9, align 8, !tbaa !14
  %68 = getelementptr inbounds nuw %struct._SUNNonlinearSolverContent_FixedPoint, ptr %67, i32 0, i32 5
  store double 1.000000e+00, ptr %68, align 8, !tbaa !41
  %69 = load ptr, ptr %9, align 8, !tbaa !14
  %70 = getelementptr inbounds nuw %struct._SUNNonlinearSolverContent_FixedPoint, ptr %69, i32 0, i32 18
  store i32 0, ptr %70, align 8, !tbaa !42
  %71 = load ptr, ptr %9, align 8, !tbaa !14
  %72 = getelementptr inbounds nuw %struct._SUNNonlinearSolverContent_FixedPoint, ptr %71, i32 0, i32 19
  store i32 3, ptr %72, align 4, !tbaa !43
  %73 = load ptr, ptr %9, align 8, !tbaa !14
  %74 = getelementptr inbounds nuw %struct._SUNNonlinearSolverContent_FixedPoint, ptr %73, i32 0, i32 20
  store i64 0, ptr %74, align 8, !tbaa !44
  %75 = load ptr, ptr %9, align 8, !tbaa !14
  %76 = getelementptr inbounds nuw %struct._SUNNonlinearSolverContent_FixedPoint, ptr %75, i32 0, i32 21
  store i64 0, ptr %76, align 8, !tbaa !45
  %77 = load ptr, ptr %9, align 8, !tbaa !14
  %78 = getelementptr inbounds nuw %struct._SUNNonlinearSolverContent_FixedPoint, ptr %77, i32 0, i32 22
  store ptr null, ptr %78, align 8, !tbaa !46
  %79 = load ptr, ptr %8, align 8, !tbaa !12
  %80 = load ptr, ptr %4, align 8, !tbaa !3
  %81 = call i32 @AllocateContent(ptr noundef %79, ptr noundef %80)
  %82 = load ptr, ptr %8, align 8, !tbaa !12
  call void @llvm.lifetime.end.p0(i64 8, ptr %9) #7
  call void @llvm.lifetime.end.p0(i64 8, ptr %8) #7
  call void @llvm.lifetime.end.p0(i64 8, ptr %7) #7
  ret ptr %82
}