; Function Attrs: nounwind uwtable
define noundef ptr @SUNNonlinSol_FixedPoint(ptr noundef %0, i32 noundef %1, ptr noundef %2) local_unnamed_addr #0 {
  %4 = tail call ptr @SUNNonlinSolNewEmpty(ptr noundef %2) #12
  %5 = getelementptr inbounds nuw i8, ptr %4, i64 8
  %6 = load ptr, ptr %5, align 8, !tbaa !3
  store ptr @SUNNonlinSolGetType_FixedPoint, ptr %6, align 8, !tbaa !10
  %7 = getelementptr inbounds nuw i8, ptr %6, i64 8
  store ptr @SUNNonlinSolInitialize_FixedPoint, ptr %7, align 8, !tbaa !12
  %8 = getelementptr inbounds nuw i8, ptr %6, i64 24
  store ptr @SUNNonlinSolSolve_FixedPoint, ptr %8, align 8, !tbaa !13
  %9 = getelementptr inbounds nuw i8, ptr %6, i64 32
  store ptr @SUNNonlinSolFree_FixedPoint, ptr %9, align 8, !tbaa !14
  %10 = getelementptr inbounds nuw i8, ptr %6, i64 40
  store ptr @SUNNonlinSolSetSysFn_FixedPoint, ptr %10, align 8, !tbaa !15
  %11 = getelementptr inbounds nuw i8, ptr %6, i64 64
  store ptr @SUNNonlinSolSetConvTestFn_FixedPoint, ptr %11, align 8, !tbaa !16
  %12 = getelementptr inbounds nuw i8, ptr %6, i64 72
  store ptr @SUNNonlinSolSetMaxIters_FixedPoint, ptr %12, align 8, !tbaa !17
  %13 = getelementptr inbounds nuw i8, ptr %6, i64 80
  store ptr @SUNNonlinSolGetNumIters_FixedPoint, ptr %13, align 8, !tbaa !18
  %14 = getelementptr inbounds nuw i8, ptr %6, i64 88
  store ptr @SUNNonlinSolGetCurIter_FixedPoint, ptr %14, align 8, !tbaa !19
  %15 = getelementptr inbounds nuw i8, ptr %6, i64 96
  store ptr @SUNNonlinSolGetNumConvFails_FixedPoint, ptr %15, align 8, !tbaa !20
  %calloc = tail call dereferenceable_or_null(176) ptr @calloc(i64 1, i64 176)
  store ptr %calloc, ptr %4, align 8, !tbaa !21
  %16 = getelementptr inbounds nuw i8, ptr %calloc, i64 16
  store i32 %1, ptr %16, align 8, !tbaa !22
  %17 = getelementptr inbounds nuw i8, ptr %calloc, i64 40
  store double 1.000000e+00, ptr %17, align 8, !tbaa !31
  %18 = getelementptr inbounds nuw i8, ptr %calloc, i64 148
  store i32 3, ptr %18, align 4, !tbaa !32
  %19 = tail call ptr @N_VClone(ptr noundef %0) #12
  %20 = load ptr, ptr %4, align 8, !tbaa !21
  %21 = getelementptr inbounds nuw i8, ptr %20, i64 104
  store ptr %19, ptr %21, align 8, !tbaa !33
  %22 = tail call ptr @N_VClone(ptr noundef %0) #12
  %23 = load ptr, ptr %4, align 8, !tbaa !21
  %24 = getelementptr inbounds nuw i8, ptr %23, i64 112
  store ptr %22, ptr %24, align 8, !tbaa !34
  %25 = tail call ptr @N_VClone(ptr noundef %0) #12
  %26 = load ptr, ptr %4, align 8, !tbaa !21
  %27 = getelementptr inbounds nuw i8, ptr %26, i64 136
  store ptr %25, ptr %27, align 8, !tbaa !35
  %28 = icmp sgt i32 %1, 0
  br i1 %28, label %29, label %AllocateContent.exit

29:                                               ; preds = %3
  %30 = tail call ptr @N_VClone(ptr noundef %0) #12
  %31 = load ptr, ptr %4, align 8, !tbaa !21
  %32 = getelementptr inbounds nuw i8, ptr %31, i64 120
  store ptr %30, ptr %32, align 8, !tbaa !36
  %33 = tail call ptr @N_VClone(ptr noundef %0) #12
  %34 = load ptr, ptr %4, align 8, !tbaa !21
  %35 = getelementptr inbounds nuw i8, ptr %34, i64 128
  store ptr %33, ptr %35, align 8, !tbaa !37
  %36 = zext nneg i32 %1 to i64
  %37 = shl nuw nsw i64 %36, 2
  %38 = tail call noalias ptr @malloc(i64 noundef %37) #13
  %39 = getelementptr inbounds nuw i8, ptr %34, i64 24
  store ptr %38, ptr %39, align 8, !tbaa !38
  %40 = mul nuw nsw i32 %1, %1
  %41 = zext nneg i32 %40 to i64
  %42 = shl nuw nsw i64 %41, 3
  %43 = tail call noalias ptr @malloc(i64 noundef %42) #13
  %44 = getelementptr inbounds nuw i8, ptr %34, i64 48
  store ptr %43, ptr %44, align 8, !tbaa !39
  %45 = shl nuw nsw i64 %36, 3
  %46 = tail call noalias ptr @malloc(i64 noundef %45) #13
  %47 = getelementptr inbounds nuw i8, ptr %34, i64 56
  store ptr %46, ptr %47, align 8, !tbaa !40
  %48 = shl nuw i32 %1, 1
  %49 = add i32 %48, 2
  %50 = zext nneg i32 %49 to i64
  %51 = shl nuw nsw i64 %50, 3
  %52 = tail call noalias ptr @malloc(i64 noundef %51) #13
  %53 = getelementptr inbounds nuw i8, ptr %34, i64 64
  store ptr %52, ptr %53, align 8, !tbaa !41
  %54 = tail call ptr @N_VCloneVectorArray(i32 noundef %1, ptr noundef %0) #12
  %55 = load ptr, ptr %4, align 8, !tbaa !21
  %56 = getelementptr inbounds nuw i8, ptr %55, i64 72
  store ptr %54, ptr %56, align 8, !tbaa !42
  %57 = tail call ptr @N_VCloneVectorArray(i32 noundef %1, ptr noundef %0) #12
  %58 = load ptr, ptr %4, align 8, !tbaa !21
  %59 = getelementptr inbounds nuw i8, ptr %58, i64 80
  store ptr %57, ptr %59, align 8, !tbaa !43
  %60 = tail call ptr @N_VCloneVectorArray(i32 noundef %1, ptr noundef %0) #12
  %61 = load ptr, ptr %4, align 8, !tbaa !21
  %62 = getelementptr inbounds nuw i8, ptr %61, i64 88
  store ptr %60, ptr %62, align 8, !tbaa !44
  %63 = tail call noalias ptr @malloc(i64 noundef %51) #13
  %64 = getelementptr inbounds nuw i8, ptr %61, i64 96
  store ptr %63, ptr %64, align 8, !tbaa !45
  br label %AllocateContent.exit

AllocateContent.exit:                             ; preds = %3, %29
  ret ptr %4
}